; ModuleID = 'source-C-CXX/44/409.c'
source_filename = "source-C-CXX/44/409.c"
target datalayout = "e-m:e-p270:32:32-p271:32:32-p272:64:64-i64:64-f80:128-n8:16:32:64-S128"
target triple = "x86_64-pc-linux-gnu"

@.str = private unnamed_addr constant [3 x i8] c"%s\00", align 1
@.str.1 = private unnamed_addr constant [3 x i8] c"%d\00", align 1

; Function Attrs: nofree nounwind sspstrong uwtable
define dso_local void @main() local_unnamed_addr #0 {
  %1 = alloca [100 x i8], align 16
  %2 = alloca [100 x i8], align 16
  %3 = getelementptr inbounds [100 x i8], [100 x i8]* %1, i64 0, i64 0
  call void @llvm.lifetime.start.p0i8(i64 100, i8* nonnull %3) #4
  call void @llvm.memset.p0i8.i64(i8* noundef nonnull align 16 dereferenceable(100) %3, i8 0, i64 100, i1 false)
  %4 = getelementptr inbounds [100 x i8], [100 x i8]* %2, i64 0, i64 0
  call void @llvm.lifetime.start.p0i8(i64 100, i8* nonnull %4) #4
  call void @llvm.memset.p0i8.i64(i8* noundef nonnull align 16 dereferenceable(100) %4, i8 0, i64 100, i1 false)
  %5 = call i32 (i8*, ...) @__isoc99_scanf(i8* getelementptr inbounds ([3 x i8], [3 x i8]* @.str, i64 0, i64 0), i8* nonnull %3)
  %6 = call i32 (i8*, ...) @__isoc99_scanf(i8* getelementptr inbounds ([3 x i8], [3 x i8]* @.str, i64 0, i64 0), i8* nonnull %4)
  %7 = load i8, i8* %3, align 16
  %8 = load i8, i8* %4, align 16, !tbaa !5
  %9 = icmp eq i8 %8, 0
  br i1 %9, label %36, label %10

10:                                               ; preds = %0
  %11 = icmp eq i8 %7, 0
  br i1 %11, label %26, label %12

12:                                               ; preds = %10, %32
  %13 = phi i8 [ %34, %32 ], [ %8, %10 ]
  %14 = phi i8* [ %33, %32 ], [ %4, %10 ]
  %15 = icmp eq i8 %13, %7
  br i1 %15, label %16, label %32

16:                                               ; preds = %12, %23
  %17 = phi i8* [ %20, %23 ], [ %3, %12 ]
  %18 = phi i8* [ %19, %23 ], [ %14, %12 ]
  %19 = getelementptr inbounds i8, i8* %18, i64 1
  %20 = getelementptr inbounds i8, i8* %17, i64 1
  %21 = load i8, i8* %20, align 1, !tbaa !5
  %22 = icmp eq i8 %21, 0
  br i1 %22, label %26, label %23

23:                                               ; preds = %16
  %24 = load i8, i8* %19, align 1, !tbaa !5
  %25 = icmp eq i8 %24, %21
  br i1 %25, label %16, label %32

26:                                               ; preds = %16, %10
  %27 = phi i8* [ %4, %10 ], [ %14, %16 ]
  %28 = ptrtoint i8* %27 to i64
  %29 = ptrtoint [100 x i8]* %2 to i64
  %30 = sub i64 %28, %29
  %31 = trunc i64 %30 to i32
  br label %36

32:                                               ; preds = %23, %12
  %33 = getelementptr inbounds i8, i8* %14, i64 1
  %34 = load i8, i8* %33, align 1, !tbaa !5
  %35 = icmp eq i8 %34, 0
  br i1 %35, label %36, label %12, !llvm.loop !8

36:                                               ; preds = %32, %0, %26
  %37 = phi i32 [ %31, %26 ], [ undef, %0 ], [ undef, %32 ]
  %38 = call i32 (i8*, ...) @printf(i8* nonnull dereferenceable(1) getelementptr inbounds ([3 x i8], [3 x i8]* @.str.1, i64 0, i64 0), i32 %37)
  call void @llvm.lifetime.end.p0i8(i64 100, i8* nonnull %4) #4
  call void @llvm.lifetime.end.p0i8(i64 100, i8* nonnull %3) #4
  ret void
}

; Function Attrs: argmemonly mustprogress nofree nosync nounwind willreturn
declare void @llvm.lifetime.start.p0i8(i64 immarg, i8* nocapture) #1

; Function Attrs: argmemonly mustprogress nofree nounwind willreturn writeonly
declare void @llvm.memset.p0i8.i64(i8* nocapture writeonly, i8, i64, i1 immarg) #2

; Function Attrs: nofree nounwind
declare noundef i32 @__isoc99_scanf(i8* nocapture noundef readonly, ...) local_unnamed_addr #3

; Function Attrs: nofree nounwind
declare noundef i32 @printf(i8* nocapture noundef readonly, ...) local_unnamed_addr #3

; Function Attrs: argmemonly mustprogress nofree nosync nounwind willreturn
declare void @llvm.lifetime.end.p0i8(i64 immarg, i8* nocapture) #1


!llvm.module.flags = !{!0, !1, !2, !3}
!llvm.ident = !{!4}

!0 = !{i32 1, !"wchar_size", i32 4}
!1 = !{i32 7, !"PIC Level", i32 2}
!2 = !{i32 7, !"PIE Level", i32 2}
!3 = !{i32 7, !"uwtable", i32 1}
!4 = !{!"clang version 13.0.0"}
!5 = !{!6, !6, i64 0}
!6 = !{!"omnipotent char", !7, i64 0}
!7 = !{!"Simple C/C++ TBAA"}
!8 = distinct !{!8, !9}
!9 = !{!"llvm.loop.mustprogress"}
